; Function Attrs: mustprogress nounwind uwtable
define dso_local void @_ZN4llvm9DbgMarker16dropOneDbgRecordEPNS_9DbgRecordE(ptr nocapture noundef nonnull readnone align 8 dereferenceable(24) %0, ptr noundef nonnull %1) local_unnamed_addr #0 align 2 {
  %3 = getelementptr inbounds nuw i8, ptr %1, i64 8
  %4 = load ptr, ptr %3, align 8
  %5 = load ptr, ptr %1, align 8
  store ptr %5, ptr %4, align 8
  %6 = getelementptr inbounds nuw i8, ptr %5, i64 8
  store ptr %4, ptr %6, align 8
  tail call void @llvm.memset.p0.i64(ptr noundef nonnull align 8 dereferenceable(16) %1, i8 0, i64 16, i1 false)
  tail call void @_ZN4llvm9DbgRecord12deleteRecordEv(ptr noundef nonnull align 8 dereferenceable(33) %1)
  ret void
}